; ModuleID = '21/1326.c'
source_filename = "21/1326.c"
target datalayout = "e-m:e-p270:32:32-p271:32:32-p272:64:64-i64:64-f80:128-n8:16:32:64-S128"
target triple = "x86_64-pc-linux-gnu"

@.str = private unnamed_addr constant [3 x i8] c"%d\00", align 1
@.str.1 = private unnamed_addr constant [4 x i8] c",%d\00", align 1

; Function Attrs: noinline nounwind uwtable
define dso_local i32 @main() #0 {
  %1 = alloca i32, align 4
  %2 = alloca i32, align 4
  %3 = alloca i32, align 4
  %4 = alloca i32, align 4
  %5 = alloca i32, align 4
  %6 = alloca i32, align 4
  %7 = alloca [300 x i32], align 16
  %8 = alloca i32, align 4
  %9 = alloca [300 x double], align 16
  %10 = alloca double, align 8
  %11 = alloca double, align 8
  store i32 0, i32* %1, align 4
  store i32 0, i32* %6, align 4
  %12 = call i32 (i8*, ...) @__isoc99_scanf(i8* getelementptr inbounds ([3 x i8], [3 x i8]* @.str, i64 0, i64 0), i32* %2)
  store i32 0, i32* %3, align 4
  br label %13

13:                                               ; preds = %28, %0
  %14 = load i32, i32* %3, align 4
  %15 = load i32, i32* %2, align 4
  %16 = icmp slt i32 %14, %15
  br i1 %16, label %17, label %31

17:                                               ; preds = %13
  %18 = load i32, i32* %3, align 4
  %19 = sext i32 %18 to i64
  %20 = getelementptr inbounds [300 x i32], [300 x i32]* %7, i64 0, i64 %19
  %21 = call i32 (i8*, ...) @__isoc99_scanf(i8* getelementptr inbounds ([3 x i8], [3 x i8]* @.str, i64 0, i64 0), i32* %20)
  %22 = load i32, i32* %6, align 4
  %23 = load i32, i32* %3, align 4
  %24 = sext i32 %23 to i64
  %25 = getelementptr inbounds [300 x i32], [300 x i32]* %7, i64 0, i64 %24
  %26 = load i32, i32* %25, align 4
  %27 = add nsw i32 %22, %26
  store i32 %27, i32* %6, align 4
  br label %28

28:                                               ; preds = %17
  %29 = load i32, i32* %3, align 4
  %30 = add nsw i32 %29, 1
  store i32 %30, i32* %3, align 4
  br label %13

31:                                               ; preds = %13
  %32 = load i32, i32* %2, align 4
  %33 = sub nsw i32 %32, 1
  store i32 %33, i32* %4, align 4
  br label %34

34:                                               ; preds = %76, %31
  %35 = load i32, i32* %4, align 4
  %36 = icmp sgt i32 %35, 0
  br i1 %36, label %37, label %79

37:                                               ; preds = %34
  store i32 0, i32* %5, align 4
  br label %38

38:                                               ; preds = %72, %37
  %39 = load i32, i32* %5, align 4
  %40 = load i32, i32* %4, align 4
  %41 = icmp slt i32 %39, %40
  br i1 %41, label %42, label %75

42:                                               ; preds = %38
  %43 = load i32, i32* %5, align 4
  %44 = sext i32 %43 to i64
  %45 = getelementptr inbounds [300 x i32], [300 x i32]* %7, i64 0, i64 %44
  %46 = load i32, i32* %45, align 4
  %47 = load i32, i32* %5, align 4
  %48 = add nsw i32 %47, 1
  %49 = sext i32 %48 to i64
  %50 = getelementptr inbounds [300 x i32], [300 x i32]* %7, i64 0, i64 %49
  %51 = load i32, i32* %50, align 4
  %52 = icmp sgt i32 %46, %51
  br i1 %52, label %53, label %71

53:                                               ; preds = %42
  %54 = load i32, i32* %5, align 4
  %55 = sext i32 %54 to i64
  %56 = getelementptr inbounds [300 x i32], [300 x i32]* %7, i64 0, i64 %55
  %57 = load i32, i32* %56, align 4
  store i32 %57, i32* %8, align 4
  %58 = load i32, i32* %5, align 4
  %59 = add nsw i32 %58, 1
  %60 = sext i32 %59 to i64
  %61 = getelementptr inbounds [300 x i32], [300 x i32]* %7, i64 0, i64 %60
  %62 = load i32, i32* %61, align 4
  %63 = load i32, i32* %5, align 4
  %64 = sext i32 %63 to i64
  %65 = getelementptr inbounds [300 x i32], [300 x i32]* %7, i64 0, i64 %64
  store i32 %62, i32* %65, align 4
  %66 = load i32, i32* %8, align 4
  %67 = load i32, i32* %5, align 4
  %68 = add nsw i32 %67, 1
  %69 = sext i32 %68 to i64
  %70 = getelementptr inbounds [300 x i32], [300 x i32]* %7, i64 0, i64 %69
  store i32 %66, i32* %70, align 4
  br label %71

71:                                               ; preds = %53, %42
  br label %72

72:                                               ; preds = %71
  %73 = load i32, i32* %5, align 4
  %74 = add nsw i32 %73, 1
  store i32 %74, i32* %5, align 4
  br label %38

75:                                               ; preds = %38
  br label %76

76:                                               ; preds = %75
  %77 = load i32, i32* %4, align 4
  %78 = add nsw i32 %77, -1
  store i32 %78, i32* %4, align 4
  br label %34

79:                                               ; preds = %34
  %80 = load i32, i32* %6, align 4
  %81 = sitofp i32 %80 to double
  %82 = load i32, i32* %2, align 4
  %83 = sitofp i32 %82 to double
  %84 = fdiv double %81, %83
  store double %84, double* %10, align 8
  store i32 0, i32* %3, align 4
  br label %85

85:                                               ; preds = %133, %79
  %86 = load i32, i32* %3, align 4
  %87 = load i32, i32* %2, align 4
  %88 = icmp slt i32 %86, %87
  br i1 %88, label %89, label %136

89:                                               ; preds = %85
  %90 = load i32, i32* %3, align 4
  %91 = sext i32 %90 to i64
  %92 = getelementptr inbounds [300 x i32], [300 x i32]* %7, i64 0, i64 %91
  %93 = load i32, i32* %92, align 4
  %94 = sitofp i32 %93 to double
  %95 = load double, double* %10, align 8
  %96 = fsub double %94, %95
  %97 = fcmp olt double %96, 0.000000e+00
  br i1 %97, label %98, label %109

98:                                               ; preds = %89
  %99 = load double, double* %10, align 8
  %100 = load i32, i32* %3, align 4
  %101 = sext i32 %100 to i64
  %102 = getelementptr inbounds [300 x i32], [300 x i32]* %7, i64 0, i64 %101
  %103 = load i32, i32* %102, align 4
  %104 = sitofp i32 %103 to double
  %105 = fsub double %99, %104
  %106 = load i32, i32* %3, align 4
  %107 = sext i32 %106 to i64
  %108 = getelementptr inbounds [300 x double], [300 x double]* %9, i64 0, i64 %107
  store double %105, double* %108, align 8
  br label %120

109:                                              ; preds = %89
  %110 = load i32, i32* %3, align 4
  %111 = sext i32 %110 to i64
  %112 = getelementptr inbounds [300 x i32], [300 x i32]* %7, i64 0, i64 %111
  %113 = load i32, i32* %112, align 4
  %114 = sitofp i32 %113 to double
  %115 = load double, double* %10, align 8
  %116 = fsub double %114, %115
  %117 = load i32, i32* %3, align 4
  %118 = sext i32 %117 to i64
  %119 = getelementptr inbounds [300 x double], [300 x double]* %9, i64 0, i64 %118
  store double %116, double* %119, align 8
  br label %120

120:                                              ; preds = %109, %98
  %121 = load i32, i32* %3, align 4
  %122 = sext i32 %121 to i64
  %123 = getelementptr inbounds [300 x double], [300 x double]* %9, i64 0, i64 %122
  %124 = load double, double* %123, align 8
  %125 = load double, double* %11, align 8
  %126 = fcmp ogt double %124, %125
  br i1 %126, label %127, label %132

127:                                              ; preds = %120
  %128 = load i32, i32* %3, align 4
  %129 = sext i32 %128 to i64
  %130 = getelementptr inbounds [300 x double], [300 x double]* %9, i64 0, i64 %129
  %131 = load double, double* %130, align 8
  store double %131, double* %11, align 8
  br label %132

132:                                              ; preds = %127, %120
  br label %133

133:                                              ; preds = %132
  %134 = load i32, i32* %3, align 4
  %135 = add nsw i32 %134, 1
  store i32 %135, i32* %3, align 4
  br label %85

136:                                              ; preds = %85
  store i32 0, i32* %3, align 4
  br label %137

137:                                              ; preds = %186, %136
  %138 = load i32, i32* %3, align 4
  %139 = load i32, i32* %2, align 4
  %140 = icmp slt i32 %138, %139
  br i1 %140, label %141, label %189

141:                                              ; preds = %137
  %142 = load i32, i32* %3, align 4
  %143 = sext i32 %142 to i64
  %144 = getelementptr inbounds [300 x double], [300 x double]* %9, i64 0, i64 %143
  %145 = load double, double* %144, align 8
  %146 = load double, double* %11, align 8
  %147 = fcmp oeq double %145, %146
  br i1 %147, label %148, label %185

148:                                              ; preds = %141
  %149 = load i32, i32* %3, align 4
  %150 = sext i32 %149 to i64
  %151 = getelementptr inbounds [300 x i32], [300 x i32]* %7, i64 0, i64 %150
  %152 = load i32, i32* %151, align 4
  %153 = call i32 (i8*, ...) @printf(i8* getelementptr inbounds ([3 x i8], [3 x i8]* @.str, i64 0, i64 0), i32 %152)
  %154 = load i32, i32* %3, align 4
  store i32 %154, i32* %4, align 4
  %155 = load i32, i32* %4, align 4
  %156 = load i32, i32* %2, align 4
  %157 = sub nsw i32 %156, 1
  %158 = icmp slt i32 %155, %157
  br i1 %158, label %159, label %184

159:                                              ; preds = %148
  %160 = load i32, i32* %4, align 4
  %161 = add nsw i32 %160, 1
  store i32 %161, i32* %5, align 4
  br label %162

162:                                              ; preds = %180, %159
  %163 = load i32, i32* %5, align 4
  %164 = load i32, i32* %2, align 4
  %165 = icmp slt i32 %163, %164
  br i1 %165, label %166, label %183

166:                                              ; preds = %162
  %167 = load i32, i32* %5, align 4
  %168 = sext i32 %167 to i64
  %169 = getelementptr inbounds [300 x double], [300 x double]* %9, i64 0, i64 %168
  %170 = load double, double* %169, align 8
  %171 = load double, double* %11, align 8
  %172 = fcmp oeq double %170, %171
  br i1 %172, label %173, label %179

173:                                              ; preds = %166
  %174 = load i32, i32* %5, align 4
  %175 = sext i32 %174 to i64
  %176 = getelementptr inbounds [300 x i32], [300 x i32]* %7, i64 0, i64 %175
  %177 = load i32, i32* %176, align 4
  %178 = call i32 (i8*, ...) @printf(i8* getelementptr inbounds ([4 x i8], [4 x i8]* @.str.1, i64 0, i64 0), i32 %177)
  br label %179

179:                                              ; preds = %173, %166
  br label %180

180:                                              ; preds = %179
  %181 = load i32, i32* %5, align 4
  %182 = add nsw i32 %181, 1
  store i32 %182, i32* %5, align 4
  br label %162

183:                                              ; preds = %162
  br label %184

184:                                              ; preds = %183, %148
  br label %189

185:                                              ; preds = %141
  br label %186

186:                                              ; preds = %185
  %187 = load i32, i32* %3, align 4
  %188 = add nsw i32 %187, 1
  store i32 %188, i32* %3, align 4
  br label %137

189:                                              ; preds = %184, %137
  ret i32 0
}

declare dso_local i32 @__isoc99_scanf(i8*, ...) #1

declare dso_local i32 @printf(i8*, ...) #1


!llvm.module.flags = !{!0}
!llvm.ident = !{!1}

!0 = !{i32 1, !"wchar_size", i32 4}
!1 = !{!"clang version 10.0.0-4ubuntu1 "}
